target datalayout = "e-m:e-p270:32:32-p271:32:32-p272:64:64-i64:64-i128:128-f80:128-n8:16:32:64-S128"
target triple = "x86_64-pc-linux-gnu"

%"class.std::__cxx11::basic_string" = type { %"struct.std::__cxx11::basic_string<char>::_Alloc_hider", i64, %union.anon }
%"struct.std::__cxx11::basic_string<char>::_Alloc_hider" = type { ptr }
%union.anon = type { i64, [8 x i8] }
%"class.std::allocator" = type { i8 }

@.str.8 = private unnamed_addr constant [4 x i8] c"zip\00", align 1
@.str.9 = private unnamed_addr constant [5 x i8] c".zip\00", align 1
@.str.49 = private unnamed_addr constant [50 x i8] c"basic_string: construction from null is not valid\00", align 1
@_ZN23cmCPackArchiveGeneratorC1EN14cmArchiveWrite8CompressENSt7__cxx1112basic_stringIcSt11char_traitsIcESaIcEEES7_ = dso_local unnamed_addr alias void (ptr, i32, ptr, ptr), ptr @_ZN23cmCPackArchiveGeneratorC2EN14cmArchiveWrite8CompressENSt7__cxx1112basic_stringIcSt11char_traitsIcESaIcEEES7_

; Function Attrs: mustprogress nounwind uwtable
define linkonce_odr dso_local noundef i64 @_ZNSt11char_traitsIcE6lengthEPKc(ptr noundef %0) #7 comdat align 2 {
  %2 = alloca ptr, align 8
  store ptr %0, ptr %2, align 8
  %3 = load ptr, ptr %2, align 8
  %4 = call i64 @strlen(ptr noundef %3) #3
  ret i64 %4
}

; Function Attrs: mustprogress nounwind uwtable
define linkonce_odr dso_local void @_ZNSt7__cxx1112basic_stringIcSt11char_traitsIcESaIcEE12_Alloc_hiderD2Ev(ptr noundef nonnull align 8 dereferenceable(8) %0) unnamed_addr #7 comdat align 2 {
  %2 = alloca ptr, align 8
  store ptr %0, ptr %2, align 8
  %3 = load ptr, ptr %2, align 8
  call void @_ZNSaIcED2Ev(ptr noundef nonnull align 1 dereferenceable(1) %3) #3
  ret void
}

; Function Attrs: mustprogress uwtable
define linkonce_odr dso_local void @_ZNSt7__cxx1112basic_stringIcSt11char_traitsIcESaIcEEC2IS3_EEPKcRKS3_(ptr noundef nonnull align 8 dereferenceable(32) %0, ptr noundef %1, ptr noundef nonnull align 1 dereferenceable(1) %2) unnamed_addr #4 comdat align 2 personality ptr @__gxx_personality_v0 {
  %4 = alloca ptr, align 8
  %5 = alloca ptr, align 8
  %6 = alloca ptr, align 8
  %7 = alloca ptr, align 8
  %8 = alloca i32, align 4
  %9 = alloca ptr, align 8
  store ptr %0, ptr %4, align 8
  store ptr %1, ptr %5, align 8
  store ptr %2, ptr %6, align 8
  %10 = load ptr, ptr %4, align 8
  %11 = getelementptr inbounds %"class.std::__cxx11::basic_string", ptr %10, i32 0, i32 0
  %12 = call noundef ptr @_ZNSt7__cxx1112basic_stringIcSt11char_traitsIcESaIcEE13_M_local_dataEv(ptr noundef nonnull align 8 dereferenceable(32) %10)
  %13 = load ptr, ptr %6, align 8
  call void @_ZNSt7__cxx1112basic_stringIcSt11char_traitsIcESaIcEE12_Alloc_hiderC1EPcRKS3_(ptr noundef nonnull align 8 dereferenceable(8) %11, ptr noundef %12, ptr noundef nonnull align 1 dereferenceable(1) %13)
  %14 = load ptr, ptr %5, align 8
  %15 = icmp eq ptr %14, null
  br i1 %15, label %16, label %22

16:                                               ; preds = %3
  invoke void @_ZSt19__throw_logic_errorPKc(ptr noundef @.str.49) #17
          to label %17 unwind label %18

17:                                               ; preds = %16
  unreachable

18:                                               ; preds = %22, %16
  %19 = landingpad { ptr, i32 }
          cleanup
  %20 = extractvalue { ptr, i32 } %19, 0
  store ptr %20, ptr %7, align 8
  %21 = extractvalue { ptr, i32 } %19, 1
  store i32 %21, ptr %8, align 4
  call void @_ZNSt7__cxx1112basic_stringIcSt11char_traitsIcESaIcEE12_Alloc_hiderD2Ev(ptr noundef nonnull align 8 dereferenceable(8) %11) #3
  br label %30

22:                                               ; preds = %3
  %23 = load ptr, ptr %5, align 8
  %24 = load ptr, ptr %5, align 8
  %25 = call noundef i64 @_ZNSt11char_traitsIcE6lengthEPKc(ptr noundef %24)
  %26 = getelementptr inbounds i8, ptr %23, i64 %25
  store ptr %26, ptr %9, align 8
  %27 = load ptr, ptr %5, align 8
  %28 = load ptr, ptr %9, align 8
  invoke void @_ZNSt7__cxx1112basic_stringIcSt11char_traitsIcESaIcEE12_M_constructIPKcEEvT_S8_St20forward_iterator_tag(ptr noundef nonnull align 8 dereferenceable(32) %10, ptr noundef %27, ptr noundef %28)
          to label %29 unwind label %18

29:                                               ; preds = %22
  ret void

30:                                               ; preds = %18
  %31 = load ptr, ptr %7, align 8
  %32 = load i32, ptr %8, align 4
  %33 = insertvalue { ptr, i32 } poison, ptr %31, 0
  %34 = insertvalue { ptr, i32 } %33, i32 %32, 1
  resume { ptr, i32 } %34
}

; Function Attrs: mustprogress uwtable
define dso_local noundef ptr @_ZN23cmCPackArchiveGenerator18CreateZIPGeneratorEv() #4 align 2 personality ptr @__gxx_personality_v0 {
  %1 = alloca %"class.std::__cxx11::basic_string", align 8
  %2 = alloca %"class.std::allocator", align 1
  %3 = alloca ptr, align 8
  %4 = alloca i32, align 4
  %5 = alloca %"class.std::__cxx11::basic_string", align 8
  %6 = alloca %"class.std::allocator", align 1
  %7 = alloca i1, align 1
  %8 = call noalias noundef nonnull ptr @_Znwm(i64 noundef 432) #15
  store i1 true, ptr %7, align 1
  call void @_ZNSaIcEC1Ev(ptr noundef nonnull align 1 dereferenceable(1) %2) #3
  invoke void @_ZNSt7__cxx1112basic_stringIcSt11char_traitsIcESaIcEEC2IS3_EEPKcRKS3_(ptr noundef nonnull align 8 dereferenceable(32) %1, ptr noundef @.str.8, ptr noundef nonnull align 1 dereferenceable(1) %2)
          to label %9 unwind label %12

9:                                                ; preds = %0
  call void @_ZNSaIcEC1Ev(ptr noundef nonnull align 1 dereferenceable(1) %6) #3
  invoke void @_ZNSt7__cxx1112basic_stringIcSt11char_traitsIcESaIcEEC2IS3_EEPKcRKS3_(ptr noundef nonnull align 8 dereferenceable(32) %5, ptr noundef @.str.9, ptr noundef nonnull align 1 dereferenceable(1) %6)
          to label %10 unwind label %16

10:                                               ; preds = %9
  invoke void @_ZN23cmCPackArchiveGeneratorC1EN14cmArchiveWrite8CompressENSt7__cxx1112basic_stringIcSt11char_traitsIcESaIcEEES7_(ptr noundef nonnull align 8 dereferenceable(432) %8, i32 noundef 0, ptr noundef %1, ptr noundef %5)
          to label %11 unwind label %20

11:                                               ; preds = %10
  store i1 false, ptr %7, align 1
  call void @_ZNSt7__cxx1112basic_stringIcSt11char_traitsIcESaIcEED1Ev(ptr noundef nonnull align 8 dereferenceable(32) %5) #3
  call void @_ZNSaIcED1Ev(ptr noundef nonnull align 1 dereferenceable(1) %6) #3
  call void @_ZNSt7__cxx1112basic_stringIcSt11char_traitsIcESaIcEED1Ev(ptr noundef nonnull align 8 dereferenceable(32) %1) #3
  call void @_ZNSaIcED1Ev(ptr noundef nonnull align 1 dereferenceable(1) %2) #3
  ret ptr %8

12:                                               ; preds = %0
  %13 = landingpad { ptr, i32 }
          cleanup
  %14 = extractvalue { ptr, i32 } %13, 0
  store ptr %14, ptr %3, align 8
  %15 = extractvalue { ptr, i32 } %13, 1
  store i32 %15, ptr %4, align 4
  br label %25

16:                                               ; preds = %9
  %17 = landingpad { ptr, i32 }
          cleanup
  %18 = extractvalue { ptr, i32 } %17, 0
  store ptr %18, ptr %3, align 8
  %19 = extractvalue { ptr, i32 } %17, 1
  store i32 %19, ptr %4, align 4
  br label %24

20:                                               ; preds = %10
  %21 = landingpad { ptr, i32 }
          cleanup
  %22 = extractvalue { ptr, i32 } %21, 0
  store ptr %22, ptr %3, align 8
  %23 = extractvalue { ptr, i32 } %21, 1
  store i32 %23, ptr %4, align 4
  call void @_ZNSt7__cxx1112basic_stringIcSt11char_traitsIcESaIcEED1Ev(ptr noundef nonnull align 8 dereferenceable(32) %5) #3
  br label %24

24:                                               ; preds = %20, %16
  call void @_ZNSaIcED1Ev(ptr noundef nonnull align 1 dereferenceable(1) %6) #3
  call void @_ZNSt7__cxx1112basic_stringIcSt11char_traitsIcESaIcEED1Ev(ptr noundef nonnull align 8 dereferenceable(32) %1) #3
  br label %25

25:                                               ; preds = %24, %12
  call void @_ZNSaIcED1Ev(ptr noundef nonnull align 1 dereferenceable(1) %2) #3
  %26 = load i1, ptr %7, align 1
  br i1 %26, label %27, label %28

27:                                               ; preds = %25
  call void @_ZdlPv(ptr noundef %8) #16
  br label %28

28:                                               ; preds = %27, %25
  br label %29

29:                                               ; preds = %28
  %30 = load ptr, ptr %3, align 8
  %31 = load i32, ptr %4, align 4
  %32 = insertvalue { ptr, i32 } poison, ptr %30, 0
  %33 = insertvalue { ptr, i32 } %32, i32 %31, 1
  resume { ptr, i32 } %33
}